Certificate:
    Data:
        Version: 3 (0x2)
        Serial Number: 5 (0x5)
    Signature Algorithm: sha256WithRSAEncryption
        Issuer: C=US, ST=IL, L=Chicago, O=5th Column LLC, O=Engineering, CN=5CRootCA/emailAddress=eng@5thcolumn.net
        Validity
            Not Before: Mar 23 18:33:22 2017 GMT
            Not After : Mar 21 18:33:22 2027 GMT
        Subject: CN=5CSubCA
        Subject Public Key Info:
            Public Key Algorithm: rsaEncryption
                Public-Key: (4096 bit)
                Modulus:
                    00:84:9c:93:7c:ab:58:f0:b7:f7:e0:a9:de:05:31:
                    3e:54:58:6a:93:8f:7f:8f:ce:9d:d6:b4:50:13:27:
                    dc:bc:b4:b0:33:73:79:27:2e:64:31:da:95:c7:5e:
                    10:4a:ae:91:d7:c0:c2:ef:1c:29:b3:22:19:ca:d8:
                    48:59:f9:d1:4b:d4:37:d9:1d:74:8c:fd:47:43:1e:
                    f3:cf:16:32:1b:ee:81:dd:1b:4a:34:1f:93:11:60:
                    8e:ba:cf:64:b4:2e:a4:8a:fa:09:d6:54:ed:9a:c5:
                    81:1f:30:78:1c:8d:d4:ce:ee:52:72:36:28:ec:8b:
                    13:5f:d2:50:3d:ad:91:f3:43:a5:86:4f:22:d3:d6:
                    12:97:df:ba:3d:17:76:b5:ce:8f:69:d9:b3:46:c3:
                    38:ce:c7:0b:f4:9a:b7:d4:9b:60:22:da:10:38:0d:
                    36:54:69:30:81:78:d8:18:05:77:38:bc:07:8d:97:
                    f2:f6:a6:a6:2b:61:be:8f:81:e4:27:07:22:27:08:
                    df:5b:6a:51:c7:7d:5f:ce:c6:63:ca:85:fc:9a:d4:
                    84:2d:c3:1b:0f:8d:2c:9d:3a:ee:1c:d4:79:bc:aa:
                    b1:f4:0f:e3:73:4a:8e:5b:24:79:3e:2c:bc:09:94:
                    c3:0e:83:c0:93:0f:44:70:ed:b4:c1:0d:12:3e:60:
                    90:20:01:99:27:33:df:d7:39:cd:7a:45:33:0b:6a:
                    5c:a0:79:b3:c1:f5:33:81:79:1a:07:e5:20:bd:9f:
                    7b:ca:94:3f:4f:0f:e9:c3:73:99:2c:ee:13:56:79:
                    77:29:13:4e:b8:dc:8a:74:cc:f7:fe:41:41:64:01:
                    0d:f9:ca:92:3d:fa:f9:dd:e7:54:5f:01:2b:4f:47:
                    86:c9:81:f0:7a:f8:ca:f7:32:4a:23:15:af:5d:89:
                    90:0b:b1:ad:17:48:2a:16:d5:52:ca:af:b5:6f:f2:
                    8f:e6:89:d7:f9:9d:98:5b:e3:96:a9:f9:3a:7c:79:
                    e2:31:8a:49:76:5b:97:58:fb:80:6d:69:3d:a8:64:
                    5d:88:05:ac:ef:e7:c8:ee:6a:43:ca:18:fe:8c:b7:
                    89:75:d7:b3:21:19:45:ab:ee:22:2f:d5:a3:6d:53:
                    0d:b8:3e:14:7c:af:a2:2a:3e:3c:8f:53:91:34:85:
                    26:e3:b8:37:06:7a:9b:b1:be:61:ee:0a:a0:8b:c7:
                    9a:d1:03:a9:42:64:5d:e8:ed:c7:04:57:3f:0b:c1:
                    a6:cc:28:d0:71:ef:52:09:7d:dd:3b:fb:ec:83:62:
                    e2:a4:72:df:68:c9:cd:8e:cb:df:7d:e4:87:ef:d1:
                    50:71:6f:9d:aa:36:b2:58:4b:c7:33:4d:a7:16:d6:
                    8d:1c:ed
                Exponent: 65537 (0x10001)
        X509v3 extensions:
            X509v3 Subject Key Identifier: 
                95:BC:5F:C4:DC:34:4A:F4:30:9D:DA:5D:50:B9:3B:FA:67:73:68:8F
            X509v3 Authority Key Identifier: 
                keyid:BC:18:40:C7:1E:32:0A:CA:58:A1:97:92:F6:57:37:63:61:3E:F4:88
                DirName:/C=US/ST=IL/L=Chicago/O=5th Column LLC/O=Engineering/CN=5CRootCA/emailAddress=eng@5thcolumn.net
                serial:B3:AD:BB:69:F9:9A:C7:5B

            X509v3 Basic Constraints: 
                CA:TRUE
            X509v3 CRL Distribution Points: 

                Full Name:
                  URI:http://crl.5thc.co/5cRootCA_crl.pem

    Signature Algorithm: sha256WithRSAEncryption
         8f:47:dc:fd:5b:17:af:4c:f9:e9:51:1e:e2:99:6d:8e:13:ff:
         4a:67:9e:1a:c1:69:d2:4d:e2:e6:e5:48:92:53:14:6b:40:6d:
         60:d8:cf:a1:68:e8:6a:41:af:b4:c9:56:be:1d:e5:e4:08:e6:
         98:8c:c7:3d:47:01:8d:68:81:97:7f:ad:22:59:4d:fa:11:f8:
         ba:a6:cc:b0:3d:5e:57:cc:64:6e:b0:c9:ad:7a:04:2d:28:25:
         10:47:fa:9d:ad:f5:c4:86:50:a9:41:b0:f5:96:e9:11:5a:75:
         e8:67:e5:ef:b9:92:03:1f:e7:6e:de:e9:82:fa:d4:b8:0f:46:
         e2:9b:16:44:7c:d9:22:72:6b:34:ed:6f:5d:e8:1b:8e:46:6c:
         5c:30:22:08:6c:07:25:3c:2d:63:e3:22:21:8a:bc:10:40:cc:
         ee:cb:24:32:f5:37:2d:e6:a9:6b:1d:4f:55:b5:55:98:89:d0:
         4d:2b:6f:c1:ed:72:df:51:74:ab:6d:bf:23:46:a2:6b:87:49:
         43:4a:1c:17:d3:55:a6:61:0c:5e:65:03:b7:ba:4c:cb:6f:4f:
         55:cc:30:51:48:f7:12:57:9b:0f:16:28:69:06:05:ed:61:f0:
         db:0b:c8:34:a5:01:2d:78:c6:d1:5e:90:60:16:4c:54:94:ac:
         af:10:b7:de:73:ba:80:6d:0b:33:b8:3c:b2:53:0a:da:30:c0:
         d6:88:ae:1f:0e:65:d4:6a:76:c7:d9:46:03:88:66:ed:1c:4a:
         81:fa:6a:fb:4e:33:f5:3a:8c:55:2b:18:47:d1:04:76:15:7c:
         f4:1f:51:93:02:b3:61:3f:78:02:81:52:e5:dd:a0:82:0e:0e:
         89:6a:97:21:53:b0:4a:6d:2c:ac:5f:10:42:0e:e2:bb:ee:2a:
         f3:4b:17:eb:fa:0a:67:d8:d7:ef:8c:4c:2f:fa:77:a9:3e:5b:
         70:d2:ab:96:26:f0:a2:76:69:e9:72:d7:e6:23:a8:1a:81:84:
         9d:66:87:cc:6b:41:e1:f1:4f:d2:0f:d8:56:c4:c1:bf:d7:8e:
         2e:a6:12:2a:34:e2:7e:90:5f:aa:7b:75:64:8c:b2:cc:55:e4:
         3f:0e:b0:c0:3a:d1:72:59:4d:01:62:53:9f:61:bf:a4:87:27:
         fe:d0:d8:b1:7f:72:53:08:6f:47:38:10:b2:56:49:15:8f:52:
         24:04:ac:9b:55:22:26:cf:b2:6e:3f:cb:da:8e:10:90:9d:c4:
         4c:10:42:bc:cf:13:61:e8:6c:fa:f1:56:cb:41:63:a4:76:21:
         32:fc:42:04:f9:59:5b:9a:2b:80:e1:ce:40:68:10:27:cb:2b:
         98:63:42:c6:47:df:d8:a1
-----BEGIN CERTIFICATE-----
MIIGTzCCBDegAwIBAgIBBTANBgkqhkiG9w0BAQsFADCBkDELMAkGA1UEBhMCVVMx
CzAJBgNVBAgTAklMMRAwDgYDVQQHEwdDaGljYWdvMRcwFQYDVQQKEw41dGggQ29s
dW1uIExMQzEUMBIGA1UEChMLRW5naW5lZXJpbmcxETAPBgNVBAMTCDVDUm9vdENB
MSAwHgYJKoZIhvcNAQkBFhFlbmdANXRoY29sdW1uLm5ldDAeFw0xNzAzMjMxODMz
MjJaFw0yNzAzMjExODMzMjJaMBIxEDAOBgNVBAMTBzVDU3ViQ0EwggIiMA0GCSqG
SIb3DQEBAQUAA4ICDwAwggIKAoICAQCEnJN8q1jwt/fgqd4FMT5UWGqTj3+Pzp3W
tFATJ9y8tLAzc3knLmQx2pXHXhBKrpHXwMLvHCmzIhnK2EhZ+dFL1DfZHXSM/UdD
HvPPFjIb7oHdG0o0H5MRYI66z2S0LqSK+gnWVO2axYEfMHgcjdTO7lJyNijsixNf
0lA9rZHzQ6WGTyLT1hKX37o9F3a1zo9p2bNGwzjOxwv0mrfUm2Ai2hA4DTZUaTCB
eNgYBXc4vAeNl/L2pqYrYb6PgeQnByInCN9balHHfV/OxmPKhfya1IQtwxsPjSyd
Ou4c1Hm8qrH0D+NzSo5bJHk+LLwJlMMOg8CTD0Rw7bTBDRI+YJAgAZknM9/XOc16
RTMLalygebPB9TOBeRoH5SC9n3vKlD9PD+nDc5ks7hNWeXcpE0643Ip0zPf+QUFk
AQ35ypI9+vnd51RfAStPR4bJgfB6+Mr3MkojFa9diZALsa0XSCoW1VLKr7Vv8o/m
idf5nZhb45ap+Tp8eeIxikl2W5dY+4BtaT2oZF2IBazv58juakPKGP6Mt4l117Mh
GUWr7iIv1aNtUw24PhR8r6IqPjyPU5E0hSbjuDcGepuxvmHuCqCLx5rRA6lCZF3o
7ccEVz8LwabMKNBx71IJfd07++yDYuKkct9oyc2Oy9995Ifv0VBxb52qNrJYS8cz
TacW1o0c7QIDAQABo4IBLzCCASswHQYDVR0OBBYEFJW8X8TcNEr0MJ3aXVC5O/pn
c2iPMIHFBgNVHSMEgb0wgbqAFLwYQMceMgrKWKGXkvZXN2NhPvSIoYGWpIGTMIGQ
MQswCQYDVQQGEwJVUzELMAkGA1UECBMCSUwxEDAOBgNVBAcTB0NoaWNhZ28xFzAV
BgNVBAoTDjV0aCBDb2x1bW4gTExDMRQwEgYDVQQKEwtFbmdpbmVlcmluZzERMA8G
A1UEAxMINUNSb290Q0ExIDAeBgkqhkiG9w0BCQEWEWVuZ0A1dGhjb2x1bW4ubmV0
ggkAs627afmax1swDAYDVR0TBAUwAwEB/zA0BgNVHR8ELTArMCmgJ6AlhiNodHRw
Oi8vY3JsLjV0aGMuY28vNWNSb290Q0FfY3JsLnBlbTANBgkqhkiG9w0BAQsFAAOC
AgEAj0fc/VsXr0z56VEe4pltjhP/SmeeGsFp0k3i5uVIklMUa0BtYNjPoWjoakGv
tMlWvh3l5AjmmIzHPUcBjWiBl3+tIllN+hH4uqbMsD1eV8xkbrDJrXoELSglEEf6
na31xIZQqUGw9ZbpEVp16Gfl77mSAx/nbt7pgvrUuA9G4psWRHzZInJrNO1vXegb
jkZsXDAiCGwHJTwtY+MiIYq8EEDM7sskMvU3Leapax1PVbVVmInQTStvwe1y31F0
q22/I0aia4dJQ0ocF9NVpmEMXmUDt7pMy29PVcwwUUj3ElebDxYoaQYF7WHw2wvI
NKUBLXjG0V6QYBZMVJSsrxC33nO6gG0LM7g8slMK2jDA1oiuHw5l1Gp2x9lGA4hm
7RxKgfpq+04z9TqMVSsYR9EEdhV89B9RkwKzYT94AoFS5d2ggg4OiWqXIVOwSm0s
rF8QQg7iu+4q80sX6/oKZ9jX74xML/p3qT5bcNKrlibwonZp6XLX5iOoGoGEnWaH
zGtB4fFP0g/YVsTBv9eOLqYSKjTifpBfqnt1ZIyyzFXkPw6wwDrRcllNAWJTn2G/
pIcn/tDYsX9yUwhvRzgQslZJFY9SJASsm1UiJs+ybj/L2o4QkJ3ETBBCvM8TYehs
+vFWy0FjpHYhMvxCBPlZW5orgOHOQGgQJ8srmGNCxkff2KE=
-----END CERTIFICATE-----
