Certificate:
    Data:
        Version: 3 (0x2)
        Serial Number: 4 (0x4)
    Signature Algorithm: sha256WithRSAEncryption
        Issuer: C=US, ST=IL, L=Chicago, O=5th Column LLC, O=Engineering, CN=5CRootCA/emailAddress=eng@5thcolumn.net
        Validity
            Not Before: Mar 23 18:29:47 2017 GMT
            Not After : Mar 21 18:29:47 2027 GMT
        Subject: C=US, ST=IL, L=Chicago, O=5th Column LLC, O=Engineering, CN=5CSubCA2/emailAddress=eng@5thcolumn.net
        Subject Public Key Info:
            Public Key Algorithm: rsaEncryption
                Public-Key: (2048 bit)
                Modulus:
                    00:aa:42:1f:d6:ee:56:59:ab:bd:5d:44:d1:fb:f1:
                    8a:42:1e:db:30:91:68:95:ec:69:a5:46:ee:20:10:
                    2a:d6:96:66:01:8f:1d:6f:41:98:7b:bb:bd:a4:54:
                    26:13:b7:32:19:69:6c:74:6c:3c:31:f8:a8:04:43:
                    7b:8f:0b:17:67:39:cf:12:e2:4e:4b:90:d8:f2:c1:
                    d6:fc:f7:f8:0e:b0:9d:f1:c0:a7:a9:ce:4f:d3:4e:
                    54:75:ce:0d:5c:94:a5:e1:7a:af:d6:ee:18:9b:08:
                    68:28:63:84:fc:0d:ea:76:dc:c0:d3:60:2e:2c:16:
                    31:98:d1:ae:51:4e:30:0c:c1:b8:bf:ac:c3:d9:fb:
                    b5:fc:bb:fe:3e:c1:0f:a5:ff:20:f2:c0:90:4b:c9:
                    19:2f:47:bd:4c:f3:43:19:f0:2a:5c:df:4d:f9:da:
                    6d:fb:5d:eb:dd:d8:70:27:d8:1a:79:66:01:25:92:
                    24:de:9d:c0:16:58:3b:4e:db:b6:81:96:39:00:76:
                    6c:64:40:29:20:f3:c9:52:51:4c:fb:e8:d2:0d:62:
                    a7:e5:89:38:21:20:10:51:9f:53:4b:58:59:b3:2b:
                    00:fb:f7:c2:4f:26:06:6b:92:07:d2:df:70:38:75:
                    27:93:48:a2:7c:89:80:1a:cc:8b:92:44:d3:c6:1d:
                    ac:85
                Exponent: 65537 (0x10001)
        X509v3 extensions:
            X509v3 Subject Key Identifier: 
                41:4E:E3:78:C0:FF:35:AD:A4:80:E3:4D:6A:C7:11:CE:EB:88:B2:48
            X509v3 Authority Key Identifier: 
                keyid:BC:18:40:C7:1E:32:0A:CA:58:A1:97:92:F6:57:37:63:61:3E:F4:88
                DirName:/C=US/ST=IL/L=Chicago/O=5th Column LLC/O=Engineering/CN=5CRootCA/emailAddress=eng@5thcolumn.net
                serial:B3:AD:BB:69:F9:9A:C7:5B

            X509v3 Basic Constraints: 
                CA:TRUE
            X509v3 CRL Distribution Points: 

                Full Name:
                  URI:http://crl.5thc.co/5cRootCA_crl.pem

    Signature Algorithm: sha256WithRSAEncryption
         68:78:c4:42:39:e1:1f:e0:54:dd:09:69:a7:15:51:c8:33:80:
         6f:c4:b0:f2:7b:a1:72:cb:a0:b0:27:46:e3:fa:b4:ad:ab:7a:
         03:00:3c:98:79:bb:f8:a8:8b:88:3c:3e:aa:4b:be:2b:70:bd:
         23:65:c3:a9:ee:58:b9:3b:32:cf:8a:83:e5:13:f1:b7:54:9e:
         f4:de:75:e7:65:f5:fd:7f:aa:92:99:11:91:c7:4d:51:0d:a4:
         51:db:b2:d4:ad:cd:13:a8:3d:e9:36:4c:66:3d:10:ff:43:ed:
         67:54:bb:c5:b4:52:df:47:12:09:86:0e:44:33:53:33:64:df:
         26:dc:68:83:fd:94:95:0d:8a:f5:dd:66:cb:6d:8a:60:b9:cb:
         bb:cf:3d:24:8c:24:bf:26:c7:9f:0e:14:3e:03:08:95:16:77:
         4a:32:b8:87:91:c5:78:2b:38:ff:6b:ad:19:17:c4:ff:f5:b3:
         83:fe:e1:61:d4:d3:70:a7:25:bf:e8:61:52:f1:0a:17:05:cd:
         76:08:16:dc:6f:ae:bb:d3:13:05:bf:ea:5f:1a:16:8b:e7:fe:
         1d:c3:16:81:20:75:8d:b8:65:46:e5:c4:e1:a7:de:e7:0f:f6:
         72:2b:2e:2f:a7:03:78:1e:a9:ef:46:20:22:2d:52:67:e5:ff:
         45:ef:a4:04:0a:64:b0:52:56:d3:09:78:29:33:09:6a:fc:c2:
         61:dc:bd:16:cf:f3:57:fa:22:a5:58:1a:65:04:c9:53:ed:6a:
         2b:63:d3:ec:1f:2c:fb:13:58:57:4e:64:6d:0f:49:d6:3a:91:
         cc:b9:b7:92:43:b1:85:0f:8f:b1:c6:92:53:80:a4:cc:7c:6a:
         30:0d:32:ee:b8:82:f6:cc:f3:02:d6:f2:06:21:6c:f0:7b:a5:
         5c:9a:71:59:14:3a:24:7e:f4:f6:51:ba:6d:13:83:70:85:53:
         91:67:15:d4:48:d9:04:94:b7:5b:6e:11:db:1f:66:83:32:96:
         3a:52:b7:c7:ed:fc:5a:1b:0e:30:ce:43:ba:ea:f7:82:40:d1:
         c6:7c:ab:2f:f0:0a:c5:ce:59:7c:e8:55:d3:59:71:7d:37:a3:
         ee:09:82:b4:33:92:f5:23:30:50:64:96:86:6b:48:38:f7:a5:
         0d:dd:ea:11:55:97:32:46:c9:3c:46:94:1b:65:98:07:6d:f7:
         93:63:b3:7c:97:92:7e:2b:1b:72:29:95:4a:af:6b:bf:72:17:
         f2:ae:6f:5b:df:e5:d9:90:c6:e2:90:f4:61:de:35:6d:89:14:
         66:b6:57:ea:05:a0:e4:6b:99:55:c5:dd:17:11:9e:d0:19:05:
         29:d9:1f:ae:ae:ab:5e:c7
-----BEGIN CERTIFICATE-----
MIIFzjCCA7agAwIBAgIBBDANBgkqhkiG9w0BAQsFADCBkDELMAkGA1UEBhMCVVMx
CzAJBgNVBAgTAklMMRAwDgYDVQQHEwdDaGljYWdvMRcwFQYDVQQKEw41dGggQ29s
dW1uIExMQzEUMBIGA1UEChMLRW5naW5lZXJpbmcxETAPBgNVBAMTCDVDUm9vdENB
MSAwHgYJKoZIhvcNAQkBFhFlbmdANXRoY29sdW1uLm5ldDAeFw0xNzAzMjMxODI5
NDdaFw0yNzAzMjExODI5NDdaMIGQMQswCQYDVQQGEwJVUzELMAkGA1UECBMCSUwx
EDAOBgNVBAcTB0NoaWNhZ28xFzAVBgNVBAoTDjV0aCBDb2x1bW4gTExDMRQwEgYD
VQQKEwtFbmdpbmVlcmluZzERMA8GA1UEAxMINUNTdWJDQTIxIDAeBgkqhkiG9w0B
CQEWEWVuZ0A1dGhjb2x1bW4ubmV0MIIBIjANBgkqhkiG9w0BAQEFAAOCAQ8AMIIB
CgKCAQEAqkIf1u5WWau9XUTR+/GKQh7bMJFolexppUbuIBAq1pZmAY8db0GYe7u9
pFQmE7cyGWlsdGw8MfioBEN7jwsXZznPEuJOS5DY8sHW/Pf4DrCd8cCnqc5P005U
dc4NXJSl4Xqv1u4YmwhoKGOE/A3qdtzA02AuLBYxmNGuUU4wDMG4v6zD2fu1/Lv+
PsEPpf8g8sCQS8kZL0e9TPNDGfAqXN9N+dpt+13r3dhwJ9gaeWYBJZIk3p3AFlg7
Ttu2gZY5AHZsZEApIPPJUlFM++jSDWKn5Yk4ISAQUZ9TS1hZsysA+/fCTyYGa5IH
0t9wOHUnk0iifImAGsyLkkTTxh2shQIDAQABo4IBLzCCASswHQYDVR0OBBYEFEFO
43jA/zWtpIDjTWrHEc7riLJIMIHFBgNVHSMEgb0wgbqAFLwYQMceMgrKWKGXkvZX
N2NhPvSIoYGWpIGTMIGQMQswCQYDVQQGEwJVUzELMAkGA1UECBMCSUwxEDAOBgNV
BAcTB0NoaWNhZ28xFzAVBgNVBAoTDjV0aCBDb2x1bW4gTExDMRQwEgYDVQQKEwtF
bmdpbmVlcmluZzERMA8GA1UEAxMINUNSb290Q0ExIDAeBgkqhkiG9w0BCQEWEWVu
Z0A1dGhjb2x1bW4ubmV0ggkAs627afmax1swDAYDVR0TBAUwAwEB/zA0BgNVHR8E
LTArMCmgJ6AlhiNodHRwOi8vY3JsLjV0aGMuY28vNWNSb290Q0FfY3JsLnBlbTAN
BgkqhkiG9w0BAQsFAAOCAgEAaHjEQjnhH+BU3QlppxVRyDOAb8Sw8nuhcsugsCdG
4/q0rat6AwA8mHm7+KiLiDw+qku+K3C9I2XDqe5YuTsyz4qD5RPxt1Se9N5152X1
/X+qkpkRkcdNUQ2kUduy1K3NE6g96TZMZj0Q/0PtZ1S7xbRS30cSCYYORDNTM2Tf
Jtxog/2UlQ2K9d1my22KYLnLu889JIwkvybHnw4UPgMIlRZ3SjK4h5HFeCs4/2ut
GRfE//Wzg/7hYdTTcKclv+hhUvEKFwXNdggW3G+uu9MTBb/qXxoWi+f+HcMWgSB1
jbhlRuXE4afe5w/2cisuL6cDeB6p70YgIi1SZ+X/Re+kBApksFJW0wl4KTMJavzC
Ydy9Fs/zV/oipVgaZQTJU+1qK2PT7B8s+xNYV05kbQ9J1jqRzLm3kkOxhQ+PscaS
U4CkzHxqMA0y7riC9szzAtbyBiFs8HulXJpxWRQ6JH709lG6bRODcIVTkWcV1EjZ
BJS3W24R2x9mgzKWOlK3x+38WhsOMM5Duur3gkDRxnyrL/AKxc5ZfOhV01lxfTej
7gmCtDOS9SMwUGSWhmtIOPelDd3qEVWXMkbJPEaUG2WYB233k2OzfJeSfisbcimV
Sq9rv3IX8q5vW9/l2ZDG4pD0Yd41bYkUZrZX6gWg5GuZVcXdFxGe0BkFKdkfrq6r
Xsc=
-----END CERTIFICATE-----
